target datalayout = "e-m:e-p270:32:32-p271:32:32-p272:64:64-i64:64-i128:128-f80:128-n8:16:32:64-S128"
target triple = "x86_64-pc-linux-gnu"

%struct.H5F_t = type { ptr, ptr, ptr, ptr, i32, ptr, i8, i8, ptr, i32 }
%struct.H5F_shared_t = type { ptr, ptr, ptr, i8, i32, i32, %struct.H5F_mtab_t, ptr, i8, i8, i64, i32, i32, i64, i64, ptr, ptr, %struct.H5AC_cache_config_t, %struct.H5AC_cache_image_config_t, i8, i8, ptr, i64, i32, i8, i64, i64, double, i64, i64, i64, i32, i32, i32, i8, i32, ptr, ptr, ptr, ptr, i8, i8, i8, i64, ptr, ptr, i32, i64, i8, i32, i8, i64, i8, [13 x i32], [13 x i64], [13 x ptr], i8, i64, i64, [7 x i32], [7 x i32], %struct.H5F_blk_aggr_t, %struct.H5F_blk_aggr_t, i64, i64, %struct.H5F_meta_accum_t, i32, i32, [30 x ptr], %struct.H5F_object_flush_t, i8, ptr }
%struct.H5F_mtab_t = type { i32, i32, ptr }
%struct.H5AC_cache_config_t = type { i32, i8, i8, i8, [1025 x i8], i8, i8, i64, double, i64, i64, i64, i32, double, double, i8, i64, i32, double, double, i32, double, double, i8, i64, i32, i8, double, i64, i32 }
%struct.H5AC_cache_image_config_t = type { i32, i8, i8, i32 }
%struct.H5F_blk_aggr_t = type { i64, i64, i64, i64, i64 }
%struct.H5F_meta_accum_t = type { ptr, i64, i64, i64, i64, i64, i8 }
%struct.H5F_object_flush_t = type { ptr, ptr }
%struct.H5F_drvrinfo_cache_ud_t = type { ptr, i64 }

@H5F_init_g = external global i8, align 1
@H5_libterm_g = external global i8, align 1
@.str.2 = private unnamed_addr constant [108 x i8] c"generated/home/dtcxzyw/WorkSpace/Projects/compilers/llvm-opt-benchmark/bench/hdf5/hdf5/src/H5Fsuper_cache.c\00", align 1
@H5E_FILE_g = external global i64, align 8
@H5E_CANTDECODE_g = external global i64, align 8
@H5E_CANTALLOC_g = external global i64, align 8
@.str.31 = private unnamed_addr constant [37 x i8] c"can't decode file driver info prefix\00", align 1
@__func__.H5F__cache_drvrinfo_deserialize = private unnamed_addr constant [32 x i8] c"H5F__cache_drvrinfo_deserialize\00", align 1
@.str.33 = private unnamed_addr constant [49 x i8] c"memory allocation failed for driver info message\00", align 1
@.str.34 = private unnamed_addr constant [36 x i8] c"unable to decode driver information\00", align 1

; Function Attrs: nounwind uwtable
define internal ptr @H5F__cache_drvrinfo_deserialize(ptr noundef %0, i64 noundef %1, ptr noundef %2, ptr noundef %3) #0 {
  %5 = alloca ptr, align 8
  %6 = alloca i64, align 8
  %7 = alloca ptr, align 8
  %8 = alloca ptr, align 8
  %9 = alloca ptr, align 8
  %10 = alloca ptr, align 8
  %11 = alloca ptr, align 8
  %12 = alloca [9 x i8], align 1
  %13 = alloca ptr, align 8
  %14 = alloca i8, align 1
  store ptr %0, ptr %5, align 8, !tbaa !3
  store i64 %1, ptr %6, align 8, !tbaa !13
  store ptr %2, ptr %7, align 8, !tbaa !3
  store ptr %3, ptr %8, align 8, !tbaa !35
  call void @llvm.lifetime.start.p0(i64 8, ptr %9) #6
  store ptr null, ptr %9, align 8, !tbaa !88
  call void @llvm.lifetime.start.p0(i64 8, ptr %10) #6
  %15 = load ptr, ptr %7, align 8, !tbaa !3
  store ptr %15, ptr %10, align 8, !tbaa !84
  call void @llvm.lifetime.start.p0(i64 8, ptr %11) #6
  %16 = load ptr, ptr %5, align 8, !tbaa !3
  store ptr %16, ptr %11, align 8, !tbaa !15
  call void @llvm.lifetime.start.p0(i64 9, ptr %12) #6
  call void @llvm.lifetime.start.p0(i64 8, ptr %13) #6
  store ptr null, ptr %13, align 8, !tbaa !88
  call void @llvm.lifetime.start.p0(i64 1, ptr %14) #6
  store i8 0, ptr %14, align 1, !tbaa !9
  %17 = load i8, ptr @H5F_init_g, align 1, !tbaa !9, !range !11, !noundef !12
  %18 = trunc i8 %17 to i1
  br i1 %18, label %23, label %19

19:                                               ; preds = %4
  %20 = load i8, ptr @H5_libterm_g, align 1, !tbaa !9, !range !11, !noundef !12
  %21 = trunc i8 %20 to i1
  %22 = xor i1 %21, true
  br label %23

23:                                               ; preds = %19, %4
  %24 = phi i1 [ true, %4 ], [ %22, %19 ]
  %25 = xor i1 %24, true
  %26 = xor i1 %25, true
  %27 = zext i1 %26 to i32
  %28 = sext i32 %27 to i64
  %29 = call i64 @llvm.expect.i64(i64 %28, i64 1)
  %30 = icmp ne i64 %29, 0
  br i1 %30, label %31, label %122

31:                                               ; preds = %23
  %32 = call noalias ptr @calloc(i64 noundef 1, i64 noundef 280) #7
  store ptr %32, ptr %9, align 8, !tbaa !88
  %33 = icmp eq ptr null, %32
  br i1 %33, label %34, label %53

34:                                               ; preds = %31
  br label %35

35:                                               ; preds = %34
  br label %36

36:                                               ; preds = %35
  br label %37

37:                                               ; preds = %36
  %38 = load i64, ptr @H5E_FILE_g, align 8, !tbaa !13
  %39 = load i64, ptr @H5E_CANTALLOC_g, align 8, !tbaa !13
  %40 = call i32 (ptr, ptr, i32, i64, i64, ptr, ...) @H5E_printf_stack(ptr noundef @.str.2, ptr noundef @__func__.H5F__cache_drvrinfo_deserialize, i32 noundef 887, i64 noundef %38, i64 noundef %39, ptr noundef @.str.33)
  br label %41

41:                                               ; preds = %37
  br label %42

42:                                               ; preds = %41
  store i8 1, ptr %14, align 1, !tbaa !9
  %43 = load i8, ptr %14, align 1, !tbaa !9, !range !11, !noundef !12
  %44 = trunc i8 %43 to i1
  %45 = zext i1 %44 to i8
  store i8 %45, ptr %14, align 1, !tbaa !9
  br label %46

46:                                               ; preds = %42
  br label %47

47:                                               ; preds = %46
  br label %48

48:                                               ; preds = %47
  store ptr null, ptr %13, align 8, !tbaa !88
  br label %112

49:                                               ; No predecessors!
  br label %50

50:                                               ; preds = %49
  br label %51

51:                                               ; preds = %50
  br label %52

52:                                               ; preds = %51
  br label %53

53:                                               ; preds = %52, %31
  %54 = load ptr, ptr %9, align 8, !tbaa !88
  %55 = getelementptr inbounds [9 x i8], ptr %12, i64 0, i64 0
  %56 = load i64, ptr %6, align 8, !tbaa !13
  %57 = load ptr, ptr %10, align 8, !tbaa !84
  %58 = call i32 @H5F__drvrinfo_prefix_decode(ptr noundef %54, ptr noundef %55, ptr noundef %11, i64 noundef %56, ptr noundef %57, i1 noundef zeroext false)
  %59 = icmp slt i32 %58, 0
  br i1 %59, label %60, label %79

60:                                               ; preds = %53
  br label %61

61:                                               ; preds = %60
  br label %62

62:                                               ; preds = %61
  br label %63

63:                                               ; preds = %62
  %64 = load i64, ptr @H5E_FILE_g, align 8, !tbaa !13
  %65 = load i64, ptr @H5E_CANTDECODE_g, align 8, !tbaa !13
  %66 = call i32 (ptr, ptr, i32, i64, i64, ptr, ...) @H5E_printf_stack(ptr noundef @.str.2, ptr noundef @__func__.H5F__cache_drvrinfo_deserialize, i32 noundef 891, i64 noundef %64, i64 noundef %65, ptr noundef @.str.31)
  br label %67

67:                                               ; preds = %63
  br label %68

68:                                               ; preds = %67
  store i8 1, ptr %14, align 1, !tbaa !9
  %69 = load i8, ptr %14, align 1, !tbaa !9, !range !11, !noundef !12
  %70 = trunc i8 %69 to i1
  %71 = zext i1 %70 to i8
  store i8 %71, ptr %14, align 1, !tbaa !9
  br label %72

72:                                               ; preds = %68
  br label %73

73:                                               ; preds = %72
  br label %74

74:                                               ; preds = %73
  store ptr null, ptr %13, align 8, !tbaa !88
  br label %112

75:                                               ; No predecessors!
  br label %76

76:                                               ; preds = %75
  br label %77

77:                                               ; preds = %76
  br label %78

78:                                               ; preds = %77
  br label %79

79:                                               ; preds = %78, %53
  %80 = load ptr, ptr %10, align 8, !tbaa !84
  %81 = getelementptr inbounds nuw %struct.H5F_drvrinfo_cache_ud_t, ptr %80, i32 0, i32 0
  %82 = load ptr, ptr %81, align 8, !tbaa !89
  %83 = getelementptr inbounds nuw %struct.H5F_t, ptr %82, i32 0, i32 2
  %84 = load ptr, ptr %83, align 8, !tbaa !41
  %85 = getelementptr inbounds nuw %struct.H5F_shared_t, ptr %84, i32 0, i32 0
  %86 = load ptr, ptr %85, align 8, !tbaa !78
  %87 = getelementptr inbounds [9 x i8], ptr %12, i64 0, i64 0
  %88 = load ptr, ptr %11, align 8, !tbaa !15
  %89 = call i32 @H5FD_sb_load(ptr noundef %86, ptr noundef %87, ptr noundef %88)
  %90 = icmp slt i32 %89, 0
  br i1 %90, label %91, label %110

91:                                               ; preds = %79
  br label %92

92:                                               ; preds = %91
  br label %93

93:                                               ; preds = %92
  br label %94

94:                                               ; preds = %93
  %95 = load i64, ptr @H5E_FILE_g, align 8, !tbaa !13
  %96 = load i64, ptr @H5E_CANTDECODE_g, align 8, !tbaa !13
  %97 = call i32 (ptr, ptr, i32, i64, i64, ptr, ...) @H5E_printf_stack(ptr noundef @.str.2, ptr noundef @__func__.H5F__cache_drvrinfo_deserialize, i32 noundef 898, i64 noundef %95, i64 noundef %96, ptr noundef @.str.34)
  br label %98

98:                                               ; preds = %94
  br label %99

99:                                               ; preds = %98
  store i8 1, ptr %14, align 1, !tbaa !9
  %100 = load i8, ptr %14, align 1, !tbaa !9, !range !11, !noundef !12
  %101 = trunc i8 %100 to i1
  %102 = zext i1 %101 to i8
  store i8 %102, ptr %14, align 1, !tbaa !9
  br label %103

103:                                              ; preds = %99
  br label %104

104:                                              ; preds = %103
  br label %105

105:                                              ; preds = %104
  store ptr null, ptr %13, align 8, !tbaa !88
  br label %112

106:                                              ; No predecessors!
  br label %107

107:                                              ; preds = %106
  br label %108

108:                                              ; preds = %107
  br label %109

109:                                              ; preds = %108
  br label %110

110:                                              ; preds = %109, %79
  %111 = load ptr, ptr %9, align 8, !tbaa !88
  store ptr %111, ptr %13, align 8, !tbaa !88
  br label %112

112:                                              ; preds = %110, %105, %74, %48
  %113 = load ptr, ptr %13, align 8, !tbaa !88
  %114 = icmp ne ptr %113, null
  br i1 %114, label %121, label %115

115:                                              ; preds = %112
  %116 = load ptr, ptr %9, align 8, !tbaa !88
  %117 = icmp ne ptr %116, null
  br i1 %117, label %118, label %121

118:                                              ; preds = %115
  %119 = load ptr, ptr %9, align 8, !tbaa !88
  %120 = call ptr @H5MM_xfree(ptr noundef %119)
  br label %121

121:                                              ; preds = %118, %115, %112
  br label %122

122:                                              ; preds = %121, %23
  %123 = load ptr, ptr %13, align 8, !tbaa !88
  call void @llvm.lifetime.end.p0(i64 1, ptr %14) #6
  call void @llvm.lifetime.end.p0(i64 8, ptr %13) #6
  call void @llvm.lifetime.end.p0(i64 9, ptr %12) #6
  call void @llvm.lifetime.end.p0(i64 8, ptr %11) #6
  call void @llvm.lifetime.end.p0(i64 8, ptr %10) #6
  call void @llvm.lifetime.end.p0(i64 8, ptr %9) #6
  ret ptr %123
}