; Function Attrs: nounwind uwtable
define internal noundef ptr @H5F__cache_drvrinfo_deserialize(ptr noundef %0, i64 noundef %1, ptr noundef readonly captures(none) %2, ptr readnone captures(none) %3) #1 {
  %5 = alloca ptr, align 8
  %6 = alloca [9 x i8], align 1
  call void @llvm.lifetime.start.p0(i64 8, ptr nonnull %5) #6
  store ptr %0, ptr %5, align 8, !tbaa !12
  call void @llvm.lifetime.start.p0(i64 9, ptr nonnull %6) #6
  %7 = load i8, ptr @H5F_init_g, align 1, !tbaa !3, !range !7, !noundef !8
  %8 = trunc nuw i8 %7 to i1
  %9 = load i8, ptr @H5_libterm_g, align 1, !range !7
  %10 = trunc nuw i8 %9 to i1
  %11 = xor i1 %10, true
  %12 = select i1 %8, i1 true, i1 %11
  br i1 %12, label %13, label %.thread, !prof !9

13:                                               ; preds = %4
  %14 = tail call noalias dereferenceable_or_null(280) ptr @calloc(i64 noundef 1, i64 noundef 280) #7
  %15 = icmp eq ptr %14, null
  br i1 %15, label %16, label %20

16:                                               ; preds = %13
  %17 = load i64, ptr @H5E_FILE_g, align 8, !tbaa !10
  %18 = load i64, ptr @H5E_CANTALLOC_g, align 8, !tbaa !10
  %19 = tail call i32 (ptr, ptr, i32, i64, i64, ptr, ...) @H5E_printf_stack(ptr noundef nonnull @.str.2, ptr noundef nonnull @__func__.H5F__cache_drvrinfo_deserialize, i32 noundef 887, i64 noundef %17, i64 noundef %18, ptr noundef nonnull @.str.33) #6
  br label %.thread

20:                                               ; preds = %13
  %21 = call fastcc i32 @H5F__drvrinfo_prefix_decode(ptr noundef %14, ptr noundef nonnull %6, ptr noundef %5, i64 noundef %1, ptr noundef %2, i1 noundef zeroext false)
  %22 = icmp slt i32 %21, 0
  br i1 %22, label %23, label %27

23:                                               ; preds = %20
  %24 = load i64, ptr @H5E_FILE_g, align 8, !tbaa !10
  %25 = load i64, ptr @H5E_CANTDECODE_g, align 8, !tbaa !10
  %26 = call i32 (ptr, ptr, i32, i64, i64, ptr, ...) @H5E_printf_stack(ptr noundef nonnull @.str.2, ptr noundef nonnull @__func__.H5F__cache_drvrinfo_deserialize, i32 noundef 891, i64 noundef %24, i64 noundef %25, ptr noundef nonnull @.str.31) #6
  br label %39

27:                                               ; preds = %20
  %28 = load ptr, ptr %2, align 8, !tbaa !77
  %29 = getelementptr inbounds nuw i8, ptr %28, i64 16
  %30 = load ptr, ptr %29, align 8, !tbaa !34
  %31 = load ptr, ptr %30, align 8, !tbaa !71
  %32 = load ptr, ptr %5, align 8, !tbaa !12
  %33 = call i32 @H5FD_sb_load(ptr noundef %31, ptr noundef nonnull %6, ptr noundef %32) #6
  %34 = icmp slt i32 %33, 0
  br i1 %34, label %35, label %.thread

35:                                               ; preds = %27
  %36 = load i64, ptr @H5E_FILE_g, align 8, !tbaa !10
  %37 = load i64, ptr @H5E_CANTDECODE_g, align 8, !tbaa !10
  %38 = call i32 (ptr, ptr, i32, i64, i64, ptr, ...) @H5E_printf_stack(ptr noundef nonnull @.str.2, ptr noundef nonnull @__func__.H5F__cache_drvrinfo_deserialize, i32 noundef 898, i64 noundef %36, i64 noundef %37, ptr noundef nonnull @.str.34) #6
  br label %39

39:                                               ; preds = %23, %35
  %40 = call ptr @H5MM_xfree(ptr noundef nonnull %14) #6
  br label %.thread

.thread:                                          ; preds = %16, %27, %39, %4
  %.0 = phi ptr [ null, %39 ], [ null, %4 ], [ %14, %27 ], [ null, %16 ]
  call void @llvm.lifetime.end.p0(i64 9, ptr nonnull %6) #6
  call void @llvm.lifetime.end.p0(i64 8, ptr nonnull %5) #6
  ret ptr %.0
}